target datalayout = "e-m:e-p270:32:32-p271:32:32-p272:64:64-i64:64-i128:128-f80:128-n8:16:32:64-S128"
target triple = "x86_64-pc-linux-gnu"

%struct.__sigset_t = type { [16 x i64] }
%class.Thread = type { %class.ThreadShadow.base, i64, [43 x i64], ptr, ptr, i32, ptr, i64, i64, %class.ThreadLocalAllocBuffer, i64, %class.ThreadHeapSampler, %class.ThreadStatisticalInfo, %class.JfrThreadLocal, ptr, ptr, ptr, ptr, ptr, ptr, i64, i32, i32, ptr, i32, i32, i32, i32, i8, ptr }
%class.ThreadShadow.base = type <{ ptr, ptr, ptr, i32 }>
%class.ThreadLocalAllocBuffer = type <{ ptr, ptr, ptr, ptr, ptr, i64, i64, i64, i64, i32, i32, i32, i32, i64, %class.AdaptiveWeightedAverage, [4 x i8] }>
%class.AdaptiveWeightedAverage = type { float, i32, i32, i8, float }
%class.ThreadHeapSampler = type { i64 }
%class.ThreadStatisticalInfo = type { i64, i64 }
%class.JfrThreadLocal = type <{ ptr, ptr, ptr, ptr, ptr, ptr, ptr, ptr, ptr, ptr, %class.RefCountHandle, i64, i64, i64, i64, i64, i64, i64, i64, i64, i64, i64, i32, i32, i32, i16, i8, i8, i8, i8, i8, [5 x i8] }>
%class.RefCountHandle = type { ptr }
%class.OSThread = type <{ i32, i32, i64, %struct.__sigset_t, %class.SuspendResume, [4 x i8], ptr, ptr, i32, [4 x i8], ptr, ptr, i32, [4 x i8] }>
%class.SuspendResume = type { i32 }
%class.SuspendedThreadTaskContext = type { ptr, ptr }
%class.SuspendedThreadTask = type <{ ptr, ptr, i8, [7 x i8] }>

; Function Attrs: mustprogress nounwind uwtable
define linkonce_odr hidden void @_ZN26SuspendedThreadTaskContextC2EP6ThreadPv(ptr noundef nonnull align 8 dereferenceable(16) %0, ptr noundef %1, ptr noundef %2) unnamed_addr #1 comdat align 2 {
  %4 = alloca ptr, align 8
  %5 = alloca ptr, align 8
  %6 = alloca ptr, align 8
  store ptr %0, ptr %4, align 8
  store ptr %1, ptr %5, align 8
  store ptr %2, ptr %6, align 8
  %7 = load ptr, ptr %4, align 8
  %8 = getelementptr inbounds %class.SuspendedThreadTaskContext, ptr %7, i32 0, i32 0
  %9 = load ptr, ptr %5, align 8
  store ptr %9, ptr %8, align 8
  %10 = getelementptr inbounds %class.SuspendedThreadTaskContext, ptr %7, i32 0, i32 1
  %11 = load ptr, ptr %6, align 8
  store ptr %11, ptr %10, align 8
  ret void
}

; Function Attrs: mustprogress nounwind uwtable
define linkonce_odr hidden noundef ptr @_ZNK8OSThread8ucontextEv(ptr noundef nonnull align 8 dereferenceable(196) %0) #1 comdat align 2 {
  %2 = alloca ptr, align 8
  store ptr %0, ptr %2, align 8
  %3 = load ptr, ptr %2, align 8
  %4 = getelementptr inbounds %class.OSThread, ptr %3, i32 0, i32 7
  %5 = load ptr, ptr %4, align 8
  ret ptr %5
}

; Function Attrs: mustprogress nounwind uwtable
define linkonce_odr hidden noundef ptr @_ZNK6Thread8osthreadEv(ptr noundef nonnull align 8 dereferenceable(888) %0) #1 comdat align 2 {
  %2 = alloca ptr, align 8
  store ptr %0, ptr %2, align 8
  %3 = load ptr, ptr %2, align 8
  %4 = getelementptr inbounds %class.Thread, ptr %3, i32 0, i32 15
  %5 = load ptr, ptr %4, align 8
  ret ptr %5
}

; Function Attrs: mustprogress nounwind uwtable
define hidden void @_ZN19SuspendedThreadTask16internal_do_taskEv(ptr noundef nonnull align 8 dereferenceable(17) %0) #1 align 2 {
  %2 = alloca ptr, align 8
  %3 = alloca %class.SuspendedThreadTaskContext, align 8
  store ptr %0, ptr %2, align 8
  %4 = load ptr, ptr %2, align 8
  %5 = getelementptr inbounds %class.SuspendedThreadTask, ptr %4, i32 0, i32 1
  %6 = load ptr, ptr %5, align 8
  %7 = call noundef ptr @_ZNK6Thread8osthreadEv(ptr noundef nonnull align 8 dereferenceable(888) %6)
  %8 = call noundef zeroext i1 @_ZN12PosixSignals10do_suspendEP8OSThread(ptr noundef %7)
  br i1 %8, label %9, label %22

9:                                                ; preds = %1
  %10 = getelementptr inbounds %class.SuspendedThreadTask, ptr %4, i32 0, i32 1
  %11 = load ptr, ptr %10, align 8
  %12 = getelementptr inbounds %class.SuspendedThreadTask, ptr %4, i32 0, i32 1
  %13 = load ptr, ptr %12, align 8
  %14 = call noundef ptr @_ZNK6Thread8osthreadEv(ptr noundef nonnull align 8 dereferenceable(888) %13)
  %15 = call noundef ptr @_ZNK8OSThread8ucontextEv(ptr noundef nonnull align 8 dereferenceable(196) %14)
  call void @_ZN26SuspendedThreadTaskContextC2EP6ThreadPv(ptr noundef nonnull align 8 dereferenceable(16) %3, ptr noundef %11, ptr noundef %15)
  %16 = load ptr, ptr %4, align 8
  %17 = getelementptr inbounds ptr, ptr %16, i64 0
  %18 = load ptr, ptr %17, align 8
  call void %18(ptr noundef nonnull align 8 dereferenceable(17) %4, ptr noundef nonnull align 8 dereferenceable(16) %3)
  %19 = getelementptr inbounds %class.SuspendedThreadTask, ptr %4, i32 0, i32 1
  %20 = load ptr, ptr %19, align 8
  %21 = call noundef ptr @_ZNK6Thread8osthreadEv(ptr noundef nonnull align 8 dereferenceable(888) %20)
  call void @_ZN12PosixSignals9do_resumeEP8OSThread(ptr noundef %21)
  br label %22

22:                                               ; preds = %9, %1
  ret void
}