; Function Attrs: mustprogress nounwind uwtable
define hidden void @_ZN19SuspendedThreadTask16internal_do_taskEv(ptr noundef nonnull align 8 dereferenceable(17) %0) local_unnamed_addr #0 align 2 {
  %2 = alloca %class.SuspendedThreadTaskContext, align 8
  %3 = getelementptr inbounds i8, ptr %0, i64 8
  %4 = load ptr, ptr %3, align 8
  %5 = getelementptr inbounds i8, ptr %4, i64 792
  %6 = load ptr, ptr %5, align 8
  %7 = tail call noundef zeroext i1 @_ZN12PosixSignals10do_suspendEP8OSThread(ptr noundef %6)
  br i1 %7, label %8, label %20

8:                                                ; preds = %1
  %9 = load ptr, ptr %3, align 8
  %10 = getelementptr inbounds i8, ptr %9, i64 792
  %11 = load ptr, ptr %10, align 8
  %12 = getelementptr inbounds i8, ptr %11, i64 160
  %13 = load ptr, ptr %12, align 8
  store ptr %9, ptr %2, align 8
  %14 = getelementptr inbounds i8, ptr %2, i64 8
  store ptr %13, ptr %14, align 8
  %15 = load ptr, ptr %0, align 8
  %16 = load ptr, ptr %15, align 8
  call void %16(ptr noundef nonnull align 8 dereferenceable(17) %0, ptr noundef nonnull align 8 dereferenceable(16) %2) #20
  %17 = load ptr, ptr %3, align 8
  %18 = getelementptr inbounds i8, ptr %17, i64 792
  %19 = load ptr, ptr %18, align 8
  call void @_ZN12PosixSignals9do_resumeEP8OSThread(ptr noundef %19)
  br label %20

20:                                               ; preds = %8, %1
  ret void
}